target datalayout = "e-m:e-p270:32:32-p271:32:32-p272:64:64-i64:64-i128:128-f80:128-n8:16:32:64-S128"
target triple = "x86_64-pc-linux-gnu"

%struct.uv__process_title = type { ptr, i64, i64 }
%union.pthread_mutex_t = type { %struct.__pthread_mutex_s }
%struct.__pthread_mutex_s = type { i32, i32, i32, i32, i32, i16, i16, %struct.__pthread_internal_list }
%struct.__pthread_internal_list = type { ptr, ptr }

@args_mem = internal global ptr null, align 8
@process_title = internal global %struct.uv__process_title zeroinitializer, align 8
@process_title_mutex_once = internal global i32 0, align 4
@process_title_mutex = internal global %union.pthread_mutex_t zeroinitializer, align 8

; Function Attrs: nounwind uwtable
define dso_local i32 @uv_get_process_title(ptr noundef %0, i64 noundef %1) #0 {
  %3 = alloca i32, align 4
  %4 = alloca ptr, align 8
  %5 = alloca i64, align 8
  store ptr %0, ptr %4, align 8, !tbaa !11
  store i64 %1, ptr %5, align 8, !tbaa !18
  %6 = load ptr, ptr %4, align 8, !tbaa !11
  %7 = icmp eq ptr %6, null
  br i1 %7, label %11, label %8

8:                                                ; preds = %2
  %9 = load i64, ptr %5, align 8, !tbaa !18
  %10 = icmp eq i64 %9, 0
  br i1 %10, label %11, label %12

11:                                               ; preds = %8, %2
  store i32 -22, ptr %3, align 4
  br label %33

12:                                               ; preds = %8
  %13 = load ptr, ptr @args_mem, align 8, !tbaa !22
  %14 = icmp eq ptr %13, null
  br i1 %14, label %15, label %16

15:                                               ; preds = %12
  store i32 -105, ptr %3, align 4
  br label %33

16:                                               ; preds = %12
  call void @uv_once(ptr noundef @process_title_mutex_once, ptr noundef @init_process_title_mutex_once)
  call void @uv_mutex_lock(ptr noundef @process_title_mutex)
  %17 = load i64, ptr %5, align 8, !tbaa !18
  %18 = load i64, ptr getelementptr inbounds nuw (%struct.uv__process_title, ptr @process_title, i32 0, i32 1), align 8, !tbaa !16
  %19 = icmp ule i64 %17, %18
  br i1 %19, label %20, label %21

20:                                               ; preds = %16
  call void @uv_mutex_unlock(ptr noundef @process_title_mutex)
  store i32 -105, ptr %3, align 4
  br label %33

21:                                               ; preds = %16
  %22 = load i64, ptr getelementptr inbounds nuw (%struct.uv__process_title, ptr @process_title, i32 0, i32 1), align 8, !tbaa !16
  %23 = icmp ne i64 %22, 0
  br i1 %23, label %24, label %29

24:                                               ; preds = %21
  %25 = load ptr, ptr %4, align 8, !tbaa !11
  %26 = load ptr, ptr @process_title, align 8, !tbaa !13
  %27 = load i64, ptr getelementptr inbounds nuw (%struct.uv__process_title, ptr @process_title, i32 0, i32 1), align 8, !tbaa !16
  %28 = add i64 %27, 1
  call void @llvm.memcpy.p0.p0.i64(ptr align 1 %25, ptr align 1 %26, i64 %28, i1 false)
  br label %29

29:                                               ; preds = %24, %21
  %30 = load ptr, ptr %4, align 8, !tbaa !11
  %31 = load i64, ptr getelementptr inbounds nuw (%struct.uv__process_title, ptr @process_title, i32 0, i32 1), align 8, !tbaa !16
  %32 = getelementptr inbounds nuw i8, ptr %30, i64 %31
  store i8 0, ptr %32, align 1, !tbaa !26
  call void @uv_mutex_unlock(ptr noundef @process_title_mutex)
  store i32 0, ptr %3, align 4
  br label %33

33:                                               ; preds = %29, %20, %15, %11
  %34 = load i32, ptr %3, align 4
  ret i32 %34
}