; Function Attrs: nounwind uwtable
define dso_local range(i32 -105, 1) i32 @uv_get_process_title(ptr noundef writeonly %0, i64 noundef %1) local_unnamed_addr #0 {
  %3 = icmp eq ptr %0, null
  %4 = icmp eq i64 %1, 0
  %or.cond = or i1 %3, %4
  br i1 %or.cond, label %16, label %5

5:                                                ; preds = %2
  %6 = load ptr, ptr @args_mem, align 8, !tbaa !11
  %7 = icmp eq ptr %6, null
  br i1 %7, label %16, label %8

8:                                                ; preds = %5
  tail call void @uv_once(ptr noundef nonnull @process_title_mutex_once, ptr noundef nonnull @init_process_title_mutex_once) #7
  tail call void @uv_mutex_lock(ptr noundef nonnull @process_title_mutex) #7
  %9 = load i64, ptr @process_title.1, align 8, !tbaa !17
  %.not = icmp ugt i64 %1, %9
  br i1 %.not, label %10, label %.sink.split

10:                                               ; preds = %8
  %.not9 = icmp eq i64 %9, 0
  br i1 %.not9, label %14, label %11

11:                                               ; preds = %10
  %12 = load ptr, ptr @process_title.0, align 8, !tbaa !16
  %13 = add nuw i64 %9, 1
  tail call void @llvm.memcpy.p0.p0.i64(ptr noundef nonnull align 1 dereferenceable(1) %0, ptr noundef nonnull align 1 dereferenceable(1) %12, i64 %13, i1 false)
  br label %14

14:                                               ; preds = %11, %10
  %15 = getelementptr inbounds nuw i8, ptr %0, i64 %9
  store i8 0, ptr %15, align 1, !tbaa !18
  br label %.sink.split

.sink.split:                                      ; preds = %8, %14
  %.0.ph = phi i32 [ 0, %14 ], [ -105, %8 ]
  tail call void @uv_mutex_unlock(ptr noundef nonnull @process_title_mutex) #7
  br label %16

16:                                               ; preds = %.sink.split, %5, %2
  %.0 = phi i32 [ -22, %2 ], [ -105, %5 ], [ %.0.ph, %.sink.split ]
  ret i32 %.0
}